Certificate:
    Data:
        Version: 3 (0x2)
        Serial Number: 0 (0x0)
    Signature Algorithm: md5WithRSAEncryption
        Issuer: C=RO, ST=Bucharest, L=Bucharest, O=N E T O P I A , OU=N E T O P I A Development Team, CN=mobilpay.ro/emailAddress=support@mobilpay.ro
        Validity
            Not Before: Sep 17 17:26:18 2016 GMT
            Not After : Sep 17 17:26:18 2017 GMT
        Subject: C=RO, ST=Bucharest, L=Bucharest, O=N E T O P I A , OU=N E T O P I A Development Team, CN=mobilpay.ro/emailAddress=support@mobilpay.ro
        Subject Public Key Info:
            Public Key Algorithm: rsaEncryption
                Public-Key: (1024 bit)
                Modulus:
                    00:bc:21:d3:f3:61:12:96:45:b8:ab:e0:85:9f:4d:
                    ef:90:97:6d:ad:39:31:63:42:87:8d:b6:91:c7:c5:
                    29:ba:8f:e5:85:62:09:40:60:dc:c7:39:65:87:75:
                    7b:45:e2:f5:48:b5:40:8d:99:fe:3b:ef:72:1a:c3:
                    64:64:30:8d:aa:c0:a6:bd:d2:f5:ba:30:1c:49:19:
                    1f:cd:59:a2:53:a8:3c:70:59:6d:8a:40:db:c0:48:
                    c8:76:11:71:a4:d7:8c:bb:62:04:6b:e3:a7:0b:b3:
                    96:39:97:78:1a:15:2e:29:c8:68:4d:08:52:93:1e:
                    9f:d3:0b:58:6d:9f:18:c7:5d
                Exponent: 65537 (0x10001)
        X509v3 extensions:
            X509v3 Subject Key Identifier: 
                3D:C9:70:A1:30:6C:73:53:34:1F:96:69:17:4F:5A:32:20:1A:1E:B5
            X509v3 Authority Key Identifier: 
                keyid:3D:C9:70:A1:30:6C:73:53:34:1F:96:69:17:4F:5A:32:20:1A:1E:B5

            X509v3 Basic Constraints: 
                CA:TRUE
    Signature Algorithm: md5WithRSAEncryption
         00:3e:04:92:bf:cc:6a:9f:b3:5b:4f:eb:dc:14:27:f5:63:e4:
         03:c5:8b:f3:13:0d:87:c5:f1:09:a3:b5:4d:12:74:5b:42:5b:
         b7:bb:2d:1b:3a:cb:b2:54:4a:8b:f9:3c:0d:ac:45:cf:c1:32:
         1e:a7:28:31:38:4f:e1:6f:d5:e6:c9:5c:4f:60:8d:e3:c8:4d:
         59:ba:f1:93:e4:c9:4c:7b:77:9c:2b:9e:c5:19:c8:30:0b:90:
         c5:fb:fc:15:a5:ba:89:64:76:8b:e9:ef:ed:51:c0:95:b5:36:
         fd:25:cb:0f:ec:b1:e4:c0:cf:50:13:b6:ce:17:1f:b5:cd:52:
         71:38
-----BEGIN CERTIFICATE-----
MIIDKjCCApOgAwIBAgIBADANBgkqhkiG9w0BAQQFADCBsTELMAkGA1UEBhMCUk8x
EjAQBgNVBAgMCUJ1Y2hhcmVzdDESMBAGA1UEBwwJQnVjaGFyZXN0MRcwFQYDVQQK
DA5OIEUgVCBPIFAgSSBBIDEnMCUGA1UECwweTiBFIFQgTyBQIEkgQSBEZXZlbG9w
bWVudCBUZWFtMRQwEgYDVQQDDAttb2JpbHBheS5ybzEiMCAGCSqGSIb3DQEJARYT
c3VwcG9ydEBtb2JpbHBheS5ybzAeFw0xNjA5MTcxNzI2MThaFw0xNzA5MTcxNzI2
MThaMIGxMQswCQYDVQQGEwJSTzESMBAGA1UECAwJQnVjaGFyZXN0MRIwEAYDVQQH
DAlCdWNoYXJlc3QxFzAVBgNVBAoMDk4gRSBUIE8gUCBJIEEgMScwJQYDVQQLDB5O
IEUgVCBPIFAgSSBBIERldmVsb3BtZW50IFRlYW0xFDASBgNVBAMMC21vYmlscGF5
LnJvMSIwIAYJKoZIhvcNAQkBFhNzdXBwb3J0QG1vYmlscGF5LnJvMIGfMA0GCSqG
SIb3DQEBAQUAA4GNADCBiQKBgQC8IdPzYRKWRbir4IWfTe+Ql22tOTFjQoeNtpHH
xSm6j+WFYglAYNzHOWWHdXtF4vVItUCNmf4773Iaw2RkMI2qwKa90vW6MBxJGR/N
WaJTqDxwWW2KQNvASMh2EXGk14y7YgRr46cLs5Y5l3gaFS4pyGhNCFKTHp/TC1ht
nxjHXQIDAQABo1AwTjAdBgNVHQ4EFgQUPclwoTBsc1M0H5ZpF09aMiAaHrUwHwYD
VR0jBBgwFoAUPclwoTBsc1M0H5ZpF09aMiAaHrUwDAYDVR0TBAUwAwEB/zANBgkq
hkiG9w0BAQQFAAOBgQAAPgSSv8xqn7NbT+vcFCf1Y+QDxYvzEw2HxfEJo7VNEnRb
Qlu3uy0bOsuyVEqL+TwNrEXPwTIepygxOE/hb9XmyVxPYI3jyE1ZuvGT5MlMe3ec
K57FGcgwC5DF+/wVpbqJZHaL6e/tUcCVtTb9JcsP7LHkwM9QE7bOFx+1zVJxOA==
-----END CERTIFICATE-----
